; Function Attrs: nounwind uwtable
define i64 @ossl_quic_get_stream_id(ptr noundef %0) local_unnamed_addr #0 {
  %2 = alloca %struct.qctx_st, align 8
  call void @llvm.lifetime.start.p0(i64 56, ptr nonnull %2) #12
  %3 = call fastcc range(i32 0, 2) i32 @expect_quic_as(ptr noundef %0, ptr noundef nonnull %2, i32 noundef 34)
  %.not = icmp eq i32 %3, 0
  br i1 %.not, label %13, label %4

4:                                                ; preds = %1
  %5 = getelementptr inbounds nuw i8, ptr %2, i64 32
  %6 = load ptr, ptr %5, align 8, !tbaa !130
  %7 = getelementptr inbounds nuw i8, ptr %6, i64 128
  %8 = load ptr, ptr %7, align 8, !tbaa !145
  %9 = getelementptr inbounds nuw i8, ptr %8, i64 56
  %10 = load i64, ptr %9, align 8, !tbaa !201
  %.val = load ptr, ptr %2, align 8, !tbaa !157
  %11 = getelementptr i8, ptr %.val, i64 88
  %.val.val = load ptr, ptr %11, align 8, !tbaa !143
  %12 = call ptr @ossl_quic_engine_get0_mutex(ptr noundef %.val.val) #12
  call void @ossl_crypto_mutex_unlock(ptr noundef %12) #12
  br label %13

13:                                               ; preds = %1, %4
  %.0 = phi i64 [ %10, %4 ], [ -1, %1 ]
  call void @llvm.lifetime.end.p0(i64 56, ptr nonnull %2) #12
  ret i64 %.0
}